target datalayout = "e-m:e-p270:32:32-p271:32:32-p272:64:64-i64:64-i128:128-f80:128-n8:16:32:64-S128"
target triple = "x86_64-pc-linux-gnu"

%"struct.xgboost::obj::RegLossParam" = type { %"struct.xgboost::XGBoostParameter", float }
%"struct.xgboost::XGBoostParameter" = type { i8 }
%"struct.xgboost::DeviceOrd" = type { i16, i16 }
%"class.xgboost::obj::FitIntercept" = type { %"class.xgboost::ObjFunction" }
%"class.xgboost::ObjFunction" = type { %"struct.xgboost::Configurable", ptr }
%"struct.xgboost::Configurable" = type { ptr }
%"class.xgboost::HostDeviceVector" = type { ptr }
%"class.xgboost::obj::RegLossObj.194" = type { %"class.xgboost::obj::FitIntercept", %"class.xgboost::HostDeviceVector", %"struct.xgboost::obj::RegLossParam" }

@_ZTVN7xgboost3obj12FitInterceptE = external unnamed_addr constant { [17 x ptr] }, align 8
@_ZTVN7xgboost11ObjFunctionE = external unnamed_addr constant { [17 x ptr] }, align 8
@_ZTVN7xgboost12ConfigurableE = linkonce_odr unnamed_addr constant { [6 x ptr] } { [6 x ptr] [ptr null, ptr @_ZTIN7xgboost12ConfigurableE, ptr @_ZN7xgboost12ConfigurableD2Ev, ptr @_ZN7xgboost12ConfigurableD0Ev, ptr @__cxa_pure_virtual, ptr @__cxa_pure_virtual] }, comdat, align 8

; Function Attrs: mustprogress nounwind uwtable
define linkonce_odr void @_ZN7xgboost12ConfigurableD2Ev(ptr noundef nonnull align 8 dereferenceable(8) %0) unnamed_addr #4 comdat align 2 {
  %2 = alloca ptr, align 8
  store ptr %0, ptr %2, align 8
  ret void
}

; Function Attrs: mustprogress nounwind uwtable
define linkonce_odr void @_ZN7xgboost12ConfigurableC2Ev(ptr noundef nonnull align 8 dereferenceable(8) %0) unnamed_addr #4 comdat align 2 {
  %2 = alloca ptr, align 8
  store ptr %0, ptr %2, align 8
  %3 = load ptr, ptr %2, align 8
  store ptr getelementptr inbounds inrange(-16, 32) ({ [6 x ptr] }, ptr @_ZTVN7xgboost12ConfigurableE, i32 0, i32 0, i32 2), ptr %3, align 8
  ret void
}

; Function Attrs: mustprogress nounwind uwtable
define linkonce_odr void @_ZN7xgboost11ObjFunctionD2Ev(ptr noundef nonnull align 8 dereferenceable(16) %0) unnamed_addr #4 comdat align 2 {
  %2 = alloca ptr, align 8
  store ptr %0, ptr %2, align 8
  %3 = load ptr, ptr %2, align 8
  call void @_ZN7xgboost12ConfigurableD2Ev(ptr noundef nonnull align 8 dereferenceable(8) %3) #3
  ret void
}

; Function Attrs: mustprogress nounwind uwtable
define linkonce_odr void @_ZN7xgboost16XGBoostParameterINS_3obj12RegLossParamEEC2Ev(ptr noundef nonnull align 1 dereferenceable(1) %0) unnamed_addr #4 comdat align 2 {
  %2 = alloca ptr, align 8
  store ptr %0, ptr %2, align 8
  %3 = load ptr, ptr %2, align 8
  %4 = getelementptr inbounds %"struct.xgboost::XGBoostParameter", ptr %3, i32 0, i32 0
  store i8 0, ptr %4, align 1
  ret void
}

; Function Attrs: mustprogress nounwind uwtable
define linkonce_odr void @_ZN7xgboost9DeviceOrdC2ENS0_4TypeEs(ptr noundef nonnull align 2 dereferenceable(4) %0, i16 noundef signext %1, i16 noundef signext %2) unnamed_addr #4 comdat align 2 {
  %4 = alloca ptr, align 8
  %5 = alloca i16, align 2
  %6 = alloca i16, align 2
  store ptr %0, ptr %4, align 8
  store i16 %1, ptr %5, align 2
  store i16 %2, ptr %6, align 2
  %7 = load ptr, ptr %4, align 8
  %8 = getelementptr inbounds %"struct.xgboost::DeviceOrd", ptr %7, i32 0, i32 0
  %9 = load i16, ptr %5, align 2
  store i16 %9, ptr %8, align 2
  %10 = getelementptr inbounds %"struct.xgboost::DeviceOrd", ptr %7, i32 0, i32 1
  %11 = load i16, ptr %6, align 2
  store i16 %11, ptr %10, align 2
  ret void
}

; Function Attrs: mustprogress nounwind uwtable
define linkonce_odr noundef signext i16 @_ZN7xgboost9DeviceOrd10CPUOrdinalEv() #4 comdat align 2 {
  ret i16 -1
}

; Function Attrs: mustprogress nounwind uwtable
define linkonce_odr void @_ZN7xgboost11ObjFunctionC2Ev(ptr noundef nonnull align 8 dereferenceable(16) %0) unnamed_addr #4 comdat align 2 {
  %2 = alloca ptr, align 8
  store ptr %0, ptr %2, align 8
  %3 = load ptr, ptr %2, align 8
  call void @_ZN7xgboost12ConfigurableC2Ev(ptr noundef nonnull align 8 dereferenceable(8) %3) #3
  store ptr getelementptr inbounds inrange(-16, 120) ({ [17 x ptr] }, ptr @_ZTVN7xgboost11ObjFunctionE, i32 0, i32 0, i32 2), ptr %3, align 8
  ret void
}

; Function Attrs: mustprogress nounwind uwtable
define linkonce_odr void @_ZN7xgboost3obj12FitInterceptD2Ev(ptr noundef nonnull align 8 dereferenceable(16) %0) unnamed_addr #4 comdat align 2 {
  %2 = alloca ptr, align 8
  store ptr %0, ptr %2, align 8
  %3 = load ptr, ptr %2, align 8
  call void @_ZN7xgboost11ObjFunctionD2Ev(ptr noundef nonnull align 8 dereferenceable(16) %3) #3
  ret void
}

; Function Attrs: mustprogress nounwind uwtable
define linkonce_odr void @_ZN7xgboost3obj12RegLossParamC2Ev(ptr noundef nonnull align 4 dereferenceable(8) %0) unnamed_addr #4 comdat align 2 {
  %2 = alloca ptr, align 8
  store ptr %0, ptr %2, align 8
  %3 = load ptr, ptr %2, align 8
  call void @_ZN7xgboost16XGBoostParameterINS_3obj12RegLossParamEEC2Ev(ptr noundef nonnull align 1 dereferenceable(1) %3) #3
  ret void
}

; Function Attrs: mustprogress uwtable
define linkonce_odr i32 @_ZN7xgboost9DeviceOrd3CPUEv() #5 comdat align 2 {
  %1 = alloca %"struct.xgboost::DeviceOrd", align 2
  %2 = call noundef signext i16 @_ZN7xgboost9DeviceOrd10CPUOrdinalEv()
  call void @_ZN7xgboost9DeviceOrdC2ENS0_4TypeEs(ptr noundef nonnull align 2 dereferenceable(4) %1, i16 noundef signext 0, i16 noundef signext %2)
  %3 = load i32, ptr %1, align 2
  ret i32 %3
}

; Function Attrs: mustprogress nounwind uwtable
define linkonce_odr void @_ZN7xgboost3obj12FitInterceptC2Ev(ptr noundef nonnull align 8 dereferenceable(16) %0) unnamed_addr #4 comdat align 2 {
  %2 = alloca ptr, align 8
  store ptr %0, ptr %2, align 8
  %3 = load ptr, ptr %2, align 8
  call void @_ZN7xgboost11ObjFunctionC2Ev(ptr noundef nonnull align 8 dereferenceable(16) %3) #3
  store ptr getelementptr inbounds inrange(-16, 120) ({ [17 x ptr] }, ptr @_ZTVN7xgboost3obj12FitInterceptE, i32 0, i32 0, i32 2), ptr %3, align 8
  ret void
}

; Function Attrs: mustprogress uwtable
define linkonce_odr void @_ZN7xgboost3obj10RegLossObjINS0_15SquaredLogErrorEEC2Ev(ptr noundef nonnull align 8 dereferenceable(32) %0) unnamed_addr #5 comdat align 2 personality ptr @__gxx_personality_v0 {
  %2 = alloca ptr, align 8
  %3 = alloca %"struct.xgboost::DeviceOrd", align 2
  %4 = alloca ptr, align 8
  %5 = alloca i32, align 4
  store ptr %0, ptr %2, align 8
  %6 = load ptr, ptr %2, align 8
  call void @_ZN7xgboost3obj12FitInterceptC2Ev(ptr noundef nonnull align 8 dereferenceable(16) %6) #3
  store ptr getelementptr inbounds inrange(-16, 120) ({ [17 x ptr] }, ptr @_ZTVN7xgboost3obj10RegLossObjINS0_15SquaredLogErrorEEE, i32 0, i32 0, i32 2), ptr %6, align 8
  %7 = getelementptr inbounds %"class.xgboost::obj::RegLossObj.194", ptr %6, i32 0, i32 1
  %8 = invoke i32 @_ZN7xgboost9DeviceOrd3CPUEv()
          to label %9 unwind label %13

9:                                                ; preds = %1
  store i32 %8, ptr %3, align 2
  %10 = load i32, ptr %3, align 2
  invoke void @_ZN7xgboost16HostDeviceVectorIfEC1EmfNS_9DeviceOrdE(ptr noundef nonnull align 8 dereferenceable(8) %7, i64 noundef 2, float noundef 0.000000e+00, i32 %10)
          to label %11 unwind label %13

11:                                               ; preds = %9
  %12 = getelementptr inbounds %"class.xgboost::obj::RegLossObj.194", ptr %6, i32 0, i32 2
  call void @_ZN7xgboost3obj12RegLossParamC2Ev(ptr noundef nonnull align 4 dereferenceable(8) %12) #3
  ret void

13:                                               ; preds = %9, %1
  %14 = landingpad { ptr, i32 }
          cleanup
  %15 = extractvalue { ptr, i32 } %14, 0
  store ptr %15, ptr %4, align 8
  %16 = extractvalue { ptr, i32 } %14, 1
  store i32 %16, ptr %5, align 4
  call void @_ZN7xgboost3obj12FitInterceptD2Ev(ptr noundef nonnull align 8 dereferenceable(16) %6) #3
  br label %17

17:                                               ; preds = %13
  %18 = load ptr, ptr %4, align 8
  %19 = load i32, ptr %5, align 4
  %20 = insertvalue { ptr, i32 } poison, ptr %18, 0
  %21 = insertvalue { ptr, i32 } %20, i32 %19, 1
  resume { ptr, i32 } %21
}

; Function Attrs: mustprogress uwtable
define internal noundef ptr @"_ZNK7xgboost3obj3$_1clEv"(ptr noundef nonnull align 1 dereferenceable(1) %0) #5 align 2 personality ptr @__gxx_personality_v0 {
  %2 = alloca ptr, align 8
  %3 = alloca ptr, align 8
  %4 = alloca i32, align 4
  store ptr %0, ptr %2, align 8
  %5 = call noalias noundef nonnull ptr @_Znwm(i64 noundef 32) #20
  invoke void @_ZN7xgboost3obj10RegLossObjINS0_15SquaredLogErrorEEC2Ev(ptr noundef nonnull align 8 dereferenceable(32) %5)
          to label %6 unwind label %7

6:                                                ; preds = %1
  ret ptr %5

7:                                                ; preds = %1
  %8 = landingpad { ptr, i32 }
          cleanup
  %9 = extractvalue { ptr, i32 } %8, 0
  store ptr %9, ptr %3, align 8
  %10 = extractvalue { ptr, i32 } %8, 1
  store i32 %10, ptr %4, align 4
  call void @_ZdlPvm(ptr noundef %5, i64 noundef 32) #22
  br label %11

11:                                               ; preds = %7
  %12 = load ptr, ptr %3, align 8
  %13 = load i32, ptr %4, align 4
  %14 = insertvalue { ptr, i32 } poison, ptr %12, 0
  %15 = insertvalue { ptr, i32 } %14, i32 %13, 1
  resume { ptr, i32 } %15
}

; Function Attrs: mustprogress nounwind uwtable
define linkonce_odr noundef ptr @_ZNKSt9_Any_data9_M_accessEv(ptr noundef nonnull align 8 dereferenceable(16) %0) #4 comdat align 2 {
  %2 = alloca ptr, align 8
  store ptr %0, ptr %2, align 8
  %3 = load ptr, ptr %2, align 8
  %4 = getelementptr inbounds [16 x i8], ptr %3, i64 0, i64 0
  ret ptr %4
}

; Function Attrs: mustprogress uwtable
define internal noundef ptr @"_ZSt13__invoke_implIPN7xgboost3obj10RegLossObjINS1_15SquaredLogErrorEEERNS1_3$_1EJEET_St14__invoke_otherOT0_DpOT1_"(ptr noundef nonnull align 1 dereferenceable(1) %0) #5 {
  %2 = alloca ptr, align 8
  store ptr %0, ptr %2, align 8
  %3 = load ptr, ptr %2, align 8
  %4 = call noundef ptr @"_ZNK7xgboost3obj3$_1clEv"(ptr noundef nonnull align 1 dereferenceable(1) %3)
  ret ptr %4
}

; Function Attrs: mustprogress nounwind uwtable
define internal noundef nonnull align 1 dereferenceable(1) ptr @"_ZNKSt9_Any_data9_M_accessIN7xgboost3obj3$_1EEERKT_v"(ptr noundef nonnull align 8 dereferenceable(16) %0) #4 align 2 {
  %2 = alloca ptr, align 8
  store ptr %0, ptr %2, align 8
  %3 = load ptr, ptr %2, align 8
  %4 = call noundef ptr @_ZNKSt9_Any_data9_M_accessEv(ptr noundef nonnull align 8 dereferenceable(16) %3) #3
  ret ptr %4
}

; Function Attrs: mustprogress uwtable
define internal noundef ptr @"_ZSt10__invoke_rIPN7xgboost11ObjFunctionERNS0_3obj3$_1EJEENSt9enable_ifIX16is_invocable_r_vIT_T0_DpT1_EES7_E4typeEOS8_DpOS9_"(ptr noundef nonnull align 1 dereferenceable(1) %0) #5 {
  %2 = alloca ptr, align 8
  store ptr %0, ptr %2, align 8
  %3 = load ptr, ptr %2, align 8
  %4 = call noundef ptr @"_ZSt13__invoke_implIPN7xgboost3obj10RegLossObjINS1_15SquaredLogErrorEEERNS1_3$_1EJEET_St14__invoke_otherOT0_DpOT1_"(ptr noundef nonnull align 1 dereferenceable(1) %3)
  ret ptr %4
}

; Function Attrs: mustprogress nounwind uwtable
define internal noundef ptr @"_ZNSt14_Function_base13_Base_managerIN7xgboost3obj3$_1EE14_M_get_pointerERKSt9_Any_data"(ptr noundef nonnull align 8 dereferenceable(16) %0) #4 align 2 {
  %2 = alloca ptr, align 8
  %3 = alloca ptr, align 8
  store ptr %0, ptr %2, align 8
  %4 = load ptr, ptr %2, align 8
  %5 = call noundef nonnull align 1 dereferenceable(1) ptr @"_ZNKSt9_Any_data9_M_accessIN7xgboost3obj3$_1EEERKT_v"(ptr noundef nonnull align 8 dereferenceable(16) %4) #3
  store ptr %5, ptr %3, align 8
  %6 = load ptr, ptr %3, align 8
  ret ptr %6
}

; Function Attrs: mustprogress uwtable
define internal noundef ptr @"_ZNSt17_Function_handlerIFPN7xgboost11ObjFunctionEvENS0_3obj3$_1EE9_M_invokeERKSt9_Any_data"(ptr noundef nonnull align 8 dereferenceable(16) %0) #5 align 2 {
  %2 = alloca ptr, align 8
  store ptr %0, ptr %2, align 8
  %3 = load ptr, ptr %2, align 8
  %4 = call noundef ptr @"_ZNSt14_Function_base13_Base_managerIN7xgboost3obj3$_1EE14_M_get_pointerERKSt9_Any_data"(ptr noundef nonnull align 8 dereferenceable(16) %3) #3
  %5 = call noundef ptr @"_ZSt10__invoke_rIPN7xgboost11ObjFunctionERNS0_3obj3$_1EJEENSt9enable_ifIX16is_invocable_r_vIT_T0_DpT1_EES7_E4typeEOS8_DpOS9_"(ptr noundef nonnull align 1 dereferenceable(1) %4)
  ret ptr %5
}