; Function Attrs: mustprogress uwtable
define internal noundef nonnull ptr @"_ZNSt17_Function_handlerIFPN7xgboost11ObjFunctionEvENS0_3obj3$_1EE9_M_invokeERKSt9_Any_data"(ptr nocapture nonnull readnone align 8 %0) #4 align 2 personality ptr @__gxx_personality_v0 {
  %2 = tail call noalias noundef nonnull dereferenceable(32) ptr @_Znwm(i64 noundef 32) #33
  store ptr getelementptr inbounds inrange(-16, 120) (i8, ptr @_ZTVN7xgboost3obj10RegLossObjINS0_15SquaredLogErrorEEE, i64 16), ptr %2, align 8
  %3 = getelementptr inbounds i8, ptr %2, i64 16
  invoke void @_ZN7xgboost16HostDeviceVectorIfEC1EmfNS_9DeviceOrdE(ptr noundef nonnull align 8 dereferenceable(8) %3, i64 noundef 2, float noundef 0.000000e+00, i32 -65536)
          to label %"_ZSt10__invoke_rIPN7xgboost11ObjFunctionERNS0_3obj3$_1EJEENSt9enable_ifIX16is_invocable_r_vIT_T0_DpT1_EES7_E4typeEOS8_DpOS9_.exit" unwind label %4

4:                                                ; preds = %1
  %5 = landingpad { ptr, i32 }
          cleanup
  tail call void @_ZdlPvm(ptr noundef nonnull %2, i64 noundef 32) #32
  resume { ptr, i32 } %5

"_ZSt10__invoke_rIPN7xgboost11ObjFunctionERNS0_3obj3$_1EJEENSt9enable_ifIX16is_invocable_r_vIT_T0_DpT1_EES7_E4typeEOS8_DpOS9_.exit": ; preds = %1
  %6 = getelementptr inbounds i8, ptr %2, i64 24
  store i8 0, ptr %6, align 1
  ret ptr %2
}